target datalayout = "e-m:e-p270:32:32-p271:32:32-p272:64:64-i64:64-i128:128-f80:128-n8:16:32:64-S128"
target triple = "x86_64-pc-linux-gnu"

%struct.ident_t = type { i32, i32, i32, i32, ptr }
%"class.LightGBM::RegressionL2loss" = type <{ %"class.LightGBM::ObjectiveFunction", i8, [3 x i8], i32, ptr, ptr, %"class.std::vector", i8, [7 x i8] }>
%"class.LightGBM::ObjectiveFunction" = type { ptr }
%"class.std::vector" = type { %"struct.std::_Vector_base" }
%"struct.std::_Vector_base" = type { %"struct.std::_Vector_base<float, std::allocator<float>>::_Vector_impl" }
%"struct.std::_Vector_base<float, std::allocator<float>>::_Vector_impl" = type { %"struct.std::_Vector_base<float, std::allocator<float>>::_Vector_impl_data" }
%"struct.std::_Vector_base<float, std::allocator<float>>::_Vector_impl_data" = type { ptr, ptr, ptr }

@1 = private unnamed_addr constant %struct.ident_t { i32 0, i32 514, i32 0, i32 22, ptr @0 }, align 8

; Function Attrs: alwaysinline norecurse nounwind uwtable
define internal void @_ZNK8LightGBM16RegressionL2loss12GetGradientsEPKdPfS3_.omp_outlined.20(ptr noalias noundef %0, ptr noalias noundef %1, ptr noundef %2, ptr noundef nonnull align 8 dereferenceable(8) %3, ptr noundef nonnull align 8 dereferenceable(8) %4, ptr noundef nonnull align 8 dereferenceable(8) %5) #16 {
  %7 = alloca ptr, align 8
  %8 = alloca ptr, align 8
  %9 = alloca ptr, align 8
  %10 = alloca ptr, align 8
  %11 = alloca ptr, align 8
  %12 = alloca ptr, align 8
  %13 = alloca i32, align 4
  %14 = alloca i32, align 4
  %15 = alloca i32, align 4
  %16 = alloca i32, align 4
  %17 = alloca i32, align 4
  %18 = alloca i32, align 4
  %19 = alloca i32, align 4
  %20 = alloca i32, align 4
  %21 = alloca i32, align 4
  store ptr %0, ptr %7, align 8, !tbaa !193
  store ptr %1, ptr %8, align 8, !tbaa !193
  store ptr %2, ptr %9, align 8, !tbaa !17
  store ptr %3, ptr %10, align 8, !tbaa !216
  store ptr %4, ptr %11, align 8, !tbaa !224
  store ptr %5, ptr %12, align 8, !tbaa !216
  %22 = load ptr, ptr %9, align 8, !tbaa !17
  %23 = load ptr, ptr %10, align 8, !tbaa !216
  %24 = load ptr, ptr %11, align 8, !tbaa !224
  %25 = load ptr, ptr %12, align 8, !tbaa !216
  call void @llvm.lifetime.start.p0(i64 4, ptr %13) #3
  call void @llvm.lifetime.start.p0(i64 4, ptr %14) #3
  %26 = getelementptr inbounds nuw %"class.LightGBM::RegressionL2loss", ptr %22, i32 0, i32 3
  %27 = load i32, ptr %26, align 4, !tbaa !188
  store i32 %27, ptr %14, align 4, !tbaa !141
  call void @llvm.lifetime.start.p0(i64 4, ptr %15) #3
  %28 = load i32, ptr %14, align 4, !tbaa !141
  %29 = sub nsw i32 %28, 0
  %30 = sdiv i32 %29, 1
  %31 = sub nsw i32 %30, 1
  store i32 %31, ptr %15, align 4, !tbaa !141
  call void @llvm.lifetime.start.p0(i64 4, ptr %16) #3
  store i32 0, ptr %16, align 4, !tbaa !141
  call void @llvm.lifetime.end.p0(i64 4, ptr %16) #3
  %32 = load i32, ptr %14, align 4, !tbaa !141
  %33 = icmp slt i32 0, %32
  br i1 %33, label %34, label %100

34:                                               ; preds = %6
  call void @llvm.lifetime.start.p0(i64 4, ptr %17) #3
  store i32 0, ptr %17, align 4, !tbaa !141
  call void @llvm.lifetime.start.p0(i64 4, ptr %18) #3
  %35 = load i32, ptr %15, align 4, !tbaa !141
  store i32 %35, ptr %18, align 4, !tbaa !141
  call void @llvm.lifetime.start.p0(i64 4, ptr %19) #3
  store i32 1, ptr %19, align 4, !tbaa !141
  call void @llvm.lifetime.start.p0(i64 4, ptr %20) #3
  store i32 0, ptr %20, align 4, !tbaa !141
  call void @llvm.lifetime.start.p0(i64 4, ptr %21) #3
  %36 = load ptr, ptr %7, align 8
  %37 = load i32, ptr %36, align 4, !tbaa !141
  call void @__kmpc_for_static_init_4(ptr @1, i32 %37, i32 34, ptr %20, ptr %17, ptr %18, ptr %19, i32 1, i32 1)
  %38 = load i32, ptr %18, align 4, !tbaa !141
  %39 = load i32, ptr %15, align 4, !tbaa !141
  %40 = icmp sgt i32 %38, %39
  br i1 %40, label %41, label %43

41:                                               ; preds = %34
  %42 = load i32, ptr %15, align 4, !tbaa !141
  br label %45

43:                                               ; preds = %34
  %44 = load i32, ptr %18, align 4, !tbaa !141
  br label %45

45:                                               ; preds = %43, %41
  %46 = phi i32 [ %42, %41 ], [ %44, %43 ]
  store i32 %46, ptr %18, align 4, !tbaa !141
  %47 = load i32, ptr %17, align 4, !tbaa !141
  store i32 %47, ptr %13, align 4, !tbaa !141
  br label %48

48:                                               ; preds = %93, %45
  %49 = load i32, ptr %13, align 4, !tbaa !141
  %50 = load i32, ptr %18, align 4, !tbaa !141
  %51 = icmp sle i32 %49, %50
  br i1 %51, label %53, label %52

52:                                               ; preds = %48
  br label %96

53:                                               ; preds = %48
  %54 = load i32, ptr %13, align 4, !tbaa !141
  %55 = mul nsw i32 %54, 1
  %56 = add nsw i32 0, %55
  store i32 %56, ptr %21, align 4, !tbaa !141
  %57 = load ptr, ptr %24, align 8, !tbaa !191
  %58 = load i32, ptr %21, align 4, !tbaa !141
  %59 = sext i32 %58 to i64
  %60 = getelementptr inbounds double, ptr %57, i64 %59
  %61 = load double, ptr %60, align 8, !tbaa !194
  %62 = getelementptr inbounds nuw %"class.LightGBM::RegressionL2loss", ptr %22, i32 0, i32 4
  %63 = load ptr, ptr %62, align 8, !tbaa !189
  %64 = load i32, ptr %21, align 4, !tbaa !141
  %65 = sext i32 %64 to i64
  %66 = getelementptr inbounds float, ptr %63, i64 %65
  %67 = load float, ptr %66, align 4, !tbaa !210
  %68 = fpext float %67 to double
  %69 = fsub double %61, %68
  %70 = fptrunc double %69 to float
  %71 = getelementptr inbounds nuw %"class.LightGBM::RegressionL2loss", ptr %22, i32 0, i32 5
  %72 = load ptr, ptr %71, align 8, !tbaa !190
  %73 = load i32, ptr %21, align 4, !tbaa !141
  %74 = sext i32 %73 to i64
  %75 = getelementptr inbounds float, ptr %72, i64 %74
  %76 = load float, ptr %75, align 4, !tbaa !210
  %77 = fmul float %70, %76
  %78 = load ptr, ptr %23, align 8, !tbaa !192
  %79 = load i32, ptr %21, align 4, !tbaa !141
  %80 = sext i32 %79 to i64
  %81 = getelementptr inbounds float, ptr %78, i64 %80
  store float %77, ptr %81, align 4, !tbaa !210
  %82 = getelementptr inbounds nuw %"class.LightGBM::RegressionL2loss", ptr %22, i32 0, i32 5
  %83 = load ptr, ptr %82, align 8, !tbaa !190
  %84 = load i32, ptr %21, align 4, !tbaa !141
  %85 = sext i32 %84 to i64
  %86 = getelementptr inbounds float, ptr %83, i64 %85
  %87 = load float, ptr %86, align 4, !tbaa !210
  %88 = load ptr, ptr %25, align 8, !tbaa !192
  %89 = load i32, ptr %21, align 4, !tbaa !141
  %90 = sext i32 %89 to i64
  %91 = getelementptr inbounds float, ptr %88, i64 %90
  store float %87, ptr %91, align 4, !tbaa !210
  br label %92

92:                                               ; preds = %53
  br label %93

93:                                               ; preds = %92
  %94 = load i32, ptr %13, align 4, !tbaa !141
  %95 = add nsw i32 %94, 1
  store i32 %95, ptr %13, align 4, !tbaa !141
  br label %48

96:                                               ; preds = %52
  br label %97

97:                                               ; preds = %96
  %98 = load ptr, ptr %7, align 8
  %99 = load i32, ptr %98, align 4, !tbaa !141
  call void @__kmpc_for_static_fini(ptr @1, i32 %99)
  call void @llvm.lifetime.end.p0(i64 4, ptr %21) #3
  call void @llvm.lifetime.end.p0(i64 4, ptr %20) #3
  call void @llvm.lifetime.end.p0(i64 4, ptr %19) #3
  call void @llvm.lifetime.end.p0(i64 4, ptr %18) #3
  call void @llvm.lifetime.end.p0(i64 4, ptr %17) #3
  br label %100

100:                                              ; preds = %97, %6
  call void @llvm.lifetime.end.p0(i64 4, ptr %15) #3
  call void @llvm.lifetime.end.p0(i64 4, ptr %14) #3
  call void @llvm.lifetime.end.p0(i64 4, ptr %13) #3
  ret void
}