; Function Attrs: alwaysinline norecurse nounwind uwtable
define internal void @_ZNK8LightGBM16RegressionL2loss12GetGradientsEPKdPfS3_.omp_outlined.20(ptr noalias noundef readonly captures(none) %0, ptr noalias readnone captures(none) %1, ptr noundef readonly captures(none) %2, ptr noundef nonnull readonly align 8 captures(none) dereferenceable(8) %3, ptr noundef nonnull readonly align 8 captures(none) dereferenceable(8) %4, ptr noundef nonnull readonly align 8 captures(none) dereferenceable(8) %5) #14 {
  %7 = alloca i32, align 4
  %8 = alloca i32, align 4
  %9 = alloca i32, align 4
  %10 = alloca i32, align 4
  %11 = getelementptr inbounds nuw i8, ptr %2, i64 12
  %12 = load i32, ptr %11, align 4, !tbaa !147
  %13 = icmp sgt i32 %12, 0
  br i1 %13, label %14, label %43

14:                                               ; preds = %6
  %15 = add nsw i32 %12, -1
  call void @llvm.lifetime.start.p0(i64 4, ptr nonnull %7) #15
  store i32 0, ptr %7, align 4, !tbaa !127
  call void @llvm.lifetime.start.p0(i64 4, ptr nonnull %8) #15
  store i32 %15, ptr %8, align 4, !tbaa !127
  call void @llvm.lifetime.start.p0(i64 4, ptr nonnull %9) #15
  store i32 1, ptr %9, align 4, !tbaa !127
  call void @llvm.lifetime.start.p0(i64 4, ptr nonnull %10) #15
  store i32 0, ptr %10, align 4, !tbaa !127
  %16 = load i32, ptr %0, align 4, !tbaa !127
  call void @__kmpc_for_static_init_4(ptr nonnull @1, i32 %16, i32 34, ptr nonnull %10, ptr nonnull %7, ptr nonnull %8, ptr nonnull %9, i32 1, i32 1)
  %17 = load i32, ptr %8, align 4, !tbaa !127
  %18 = call i32 @llvm.smin.i32(i32 %17, i32 %15)
  store i32 %18, ptr %8, align 4, !tbaa !127
  %19 = load i32, ptr %7, align 4, !tbaa !127
  %.not19 = icmp sgt i32 %19, %18
  br i1 %.not19, label %._crit_edge, label %.lr.ph

.lr.ph:                                           ; preds = %14
  %20 = load ptr, ptr %4, align 8, !tbaa !152
  %21 = getelementptr inbounds nuw i8, ptr %2, i64 16
  %22 = load ptr, ptr %21, align 8, !tbaa !148
  %23 = getelementptr inbounds nuw i8, ptr %2, i64 24
  %24 = load ptr, ptr %23, align 8, !tbaa !151
  %25 = load ptr, ptr %3, align 8, !tbaa !150
  %26 = load ptr, ptr %5, align 8, !tbaa !150
  %27 = sext i32 %19 to i64
  %28 = add nsw i32 %18, 1
  br label %29

29:                                               ; preds = %.lr.ph, %29
  %indvars.iv = phi i64 [ %27, %.lr.ph ], [ %indvars.iv.next, %29 ]
  %30 = getelementptr inbounds double, ptr %20, i64 %indvars.iv
  %31 = load double, ptr %30, align 8, !tbaa !153
  %32 = getelementptr inbounds float, ptr %22, i64 %indvars.iv
  %33 = load float, ptr %32, align 4, !tbaa !175
  %34 = fpext float %33 to double
  %35 = fsub double %31, %34
  %36 = fptrunc double %35 to float
  %37 = getelementptr inbounds float, ptr %24, i64 %indvars.iv
  %38 = load float, ptr %37, align 4, !tbaa !175
  %39 = fmul float %38, %36
  %40 = getelementptr inbounds float, ptr %25, i64 %indvars.iv
  store float %39, ptr %40, align 4, !tbaa !175
  %41 = load float, ptr %37, align 4, !tbaa !175
  %42 = getelementptr inbounds float, ptr %26, i64 %indvars.iv
  store float %41, ptr %42, align 4, !tbaa !175
  %indvars.iv.next = add nsw i64 %indvars.iv, 1
  %lftr.wideiv = trunc i64 %indvars.iv.next to i32
  %exitcond.not = icmp eq i32 %28, %lftr.wideiv
  br i1 %exitcond.not, label %._crit_edge, label %29

._crit_edge:                                      ; preds = %29, %14
  call void @__kmpc_for_static_fini(ptr nonnull @1, i32 %16)
  call void @llvm.lifetime.end.p0(i64 4, ptr nonnull %10) #15
  call void @llvm.lifetime.end.p0(i64 4, ptr nonnull %9) #15
  call void @llvm.lifetime.end.p0(i64 4, ptr nonnull %8) #15
  call void @llvm.lifetime.end.p0(i64 4, ptr nonnull %7) #15
  br label %43

43:                                               ; preds = %._crit_edge, %6
  ret void
}